; ModuleID = 'source-C-CXX/9/918.cpp'
source_filename = "source-C-CXX/9/918.cpp"
target datalayout = "e-m:e-p270:32:32-p271:32:32-p272:64:64-i64:64-f80:128-n8:16:32:64-S128"
target triple = "x86_64-pc-linux-gnu"

%"class.std::ios_base::Init" = type { i8 }
%"class.std::basic_istream" = type { i32 (...)**, i64, %"class.std::basic_ios" }
%"class.std::basic_ios" = type { %"class.std::ios_base", %"class.std::basic_ostream"*, i8, i8, %"class.std::basic_streambuf"*, %"class.std::ctype"*, %"class.std::num_put"*, %"class.std::num_get"* }
%"class.std::ios_base" = type { i32 (...)**, i64, i64, i32, i32, i32, %"struct.std::ios_base::_Callback_list"*, %"struct.std::ios_base::_Words", [8 x %"struct.std::ios_base::_Words"], i32, %"struct.std::ios_base::_Words"*, %"class.std::locale" }
%"struct.std::ios_base::_Callback_list" = type { %"struct.std::ios_base::_Callback_list"*, void (i32, %"class.std::ios_base"*, i32)*, i32, i32 }
%"struct.std::ios_base::_Words" = type { i8*, i64 }
%"class.std::locale" = type { %"class.std::locale::_Impl"* }
%"class.std::locale::_Impl" = type { i32, %"class.std::locale::facet"**, i64, %"class.std::locale::facet"**, i8** }
%"class.std::locale::facet" = type <{ i32 (...)**, i32, [4 x i8] }>
%"class.std::basic_ostream" = type { i32 (...)**, %"class.std::basic_ios" }
%"class.std::basic_streambuf" = type { i32 (...)**, i8*, i8*, i8*, i8*, i8*, i8*, %"class.std::locale" }
%"class.std::ctype" = type <{ %"class.std::locale::facet.base", [4 x i8], %struct.__locale_struct*, i8, [7 x i8], i32*, i32*, i16*, i8, [256 x i8], [256 x i8], i8, [6 x i8] }>
%"class.std::locale::facet.base" = type <{ i32 (...)**, i32 }>
%struct.__locale_struct = type { [13 x %struct.__locale_data*], i16*, i32*, i32*, [13 x i8*] }
%struct.__locale_data = type opaque
%"class.std::num_put" = type { %"class.std::locale::facet.base", [4 x i8] }
%"class.std::num_get" = type { %"class.std::locale::facet.base", [4 x i8] }

@_ZStL8__ioinit = internal global %"class.std::ios_base::Init" zeroinitializer, align 1
@__dso_handle = external hidden global i8
@n = dso_local global i32 0, align 4
@ans = dso_local local_unnamed_addr global i32 0, align 4
@f = dso_local local_unnamed_addr global [1000 x i32] zeroinitializer, align 16
@a = dso_local global [1000 x i32] zeroinitializer, align 16
@_ZSt3cin = external global %"class.std::basic_istream", align 8
@_ZSt4cout = external global %"class.std::basic_ostream", align 8
@llvm.global_ctors = appending global [1 x { i32, void ()*, i8* }] [{ i32, void ()*, i8* } { i32 65535, void ()* @_GLOBAL__sub_I_918.cpp, i8* null }]

declare void @_ZNSt8ios_base4InitC1Ev(%"class.std::ios_base::Init"* nonnull align 1 dereferenceable(1)) unnamed_addr #0

; Function Attrs: nounwind
declare void @_ZNSt8ios_base4InitD1Ev(%"class.std::ios_base::Init"* nonnull align 1 dereferenceable(1)) unnamed_addr #1

; Function Attrs: nofree nounwind
declare i32 @__cxa_atexit(void (i8*)*, i8*, i8*) local_unnamed_addr #2

; Function Attrs: mustprogress norecurse sspstrong uwtable
define dso_local i32 @main() local_unnamed_addr #3 {
  %1 = tail call nonnull align 8 dereferenceable(16) %"class.std::basic_istream"* @_ZNSirsERi(%"class.std::basic_istream"* nonnull align 8 dereferenceable(16) @_ZSt3cin, i32* nonnull align 4 dereferenceable(4) @n)
  %2 = load i32, i32* @n, align 4, !tbaa !5
  %3 = icmp sgt i32 %2, 0
  br i1 %3, label %11, label %6

4:                                                ; preds = %11
  %5 = icmp sgt i32 %16, 0
  br i1 %5, label %8, label %6

6:                                                ; preds = %0, %4
  %7 = load i32, i32* @ans, align 4, !tbaa !5
  br label %20

8:                                                ; preds = %4
  %9 = load i32, i32* @ans, align 4, !tbaa !5
  %10 = zext i32 %16 to i64
  br label %52

11:                                               ; preds = %0, %11
  %12 = phi i64 [ %15, %11 ], [ 0, %0 ]
  %13 = getelementptr inbounds [1000 x i32], [1000 x i32]* @a, i64 0, i64 %12
  %14 = tail call nonnull align 8 dereferenceable(16) %"class.std::basic_istream"* @_ZNSirsERi(%"class.std::basic_istream"* nonnull align 8 dereferenceable(16) @_ZSt3cin, i32* nonnull align 4 dereferenceable(4) %13)
  %15 = add nuw nsw i64 %12, 1
  %16 = load i32, i32* @n, align 4, !tbaa !5
  %17 = sext i32 %16 to i64
  %18 = icmp slt i64 %15, %17
  br i1 %18, label %11, label %4, !llvm.loop !9

19:                                               ; preds = %79
  store i32 %82, i32* @ans, align 4, !tbaa !5
  br label %20

20:                                               ; preds = %6, %19
  %21 = phi i32 [ %7, %6 ], [ %82, %19 ]
  %22 = tail call nonnull align 8 dereferenceable(8) %"class.std::basic_ostream"* @_ZNSolsEi(%"class.std::basic_ostream"* nonnull align 8 dereferenceable(8) @_ZSt4cout, i32 %21)
  %23 = bitcast %"class.std::basic_ostream"* %22 to i8**
  %24 = load i8*, i8** %23, align 8, !tbaa !11
  %25 = getelementptr i8, i8* %24, i64 -24
  %26 = bitcast i8* %25 to i64*
  %27 = load i64, i64* %26, align 8
  %28 = bitcast %"class.std::basic_ostream"* %22 to i8*
  %29 = add nsw i64 %27, 240
  %30 = getelementptr inbounds i8, i8* %28, i64 %29
  %31 = bitcast i8* %30 to %"class.std::ctype"**
  %32 = load %"class.std::ctype"*, %"class.std::ctype"** %31, align 8, !tbaa !13
  %33 = icmp eq %"class.std::ctype"* %32, null
  br i1 %33, label %34, label %35

34:                                               ; preds = %20
  tail call void @_ZSt16__throw_bad_castv() #6
  unreachable

35:                                               ; preds = %20
  %36 = getelementptr inbounds %"class.std::ctype", %"class.std::ctype"* %32, i64 0, i32 8
  %37 = load i8, i8* %36, align 8, !tbaa !17
  %38 = icmp eq i8 %37, 0
  br i1 %38, label %42, label %39

39:                                               ; preds = %35
  %40 = getelementptr inbounds %"class.std::ctype", %"class.std::ctype"* %32, i64 0, i32 9, i64 10
  %41 = load i8, i8* %40, align 1, !tbaa !19
  br label %48

42:                                               ; preds = %35
  tail call void @_ZNKSt5ctypeIcE13_M_widen_initEv(%"class.std::ctype"* nonnull align 8 dereferenceable(570) %32)
  %43 = bitcast %"class.std::ctype"* %32 to i8 (%"class.std::ctype"*, i8)***
  %44 = load i8 (%"class.std::ctype"*, i8)**, i8 (%"class.std::ctype"*, i8)*** %43, align 8, !tbaa !11
  %45 = getelementptr inbounds i8 (%"class.std::ctype"*, i8)*, i8 (%"class.std::ctype"*, i8)** %44, i64 6
  %46 = load i8 (%"class.std::ctype"*, i8)*, i8 (%"class.std::ctype"*, i8)** %45, align 8
  %47 = tail call signext i8 %46(%"class.std::ctype"* nonnull align 8 dereferenceable(570) %32, i8 signext 10)
  br label %48

48:                                               ; preds = %39, %42
  %49 = phi i8 [ %41, %39 ], [ %47, %42 ]
  %50 = tail call nonnull align 8 dereferenceable(8) %"class.std::basic_ostream"* @_ZNSo3putEc(%"class.std::basic_ostream"* nonnull align 8 dereferenceable(8) %22, i8 signext %49)
  %51 = tail call nonnull align 8 dereferenceable(8) %"class.std::basic_ostream"* @_ZNSo5flushEv(%"class.std::basic_ostream"* nonnull align 8 dereferenceable(8) %50)
  ret i32 0

52:                                               ; preds = %8, %79
  %53 = phi i64 [ 0, %8 ], [ %83, %79 ]
  %54 = phi i32 [ %9, %8 ], [ %82, %79 ]
  %55 = getelementptr inbounds [1000 x i32], [1000 x i32]* @f, i64 0, i64 %53
  store i32 1, i32* %55, align 4, !tbaa !5
  %56 = icmp eq i64 %53, 0
  br i1 %56, label %79, label %57

57:                                               ; preds = %52
  %58 = getelementptr inbounds [1000 x i32], [1000 x i32]* @a, i64 0, i64 %53
  %59 = load i32, i32* %58, align 4, !tbaa !5
  %60 = and i64 %53, 1
  %61 = icmp eq i64 %53, 1
  br i1 %61, label %64, label %62

62:                                               ; preds = %57
  %63 = and i64 %53, 9223372036854775806
  br label %85

64:                                               ; preds = %110, %57
  %65 = phi i32 [ undef, %57 ], [ %111, %110 ]
  %66 = phi i32 [ 1, %57 ], [ %111, %110 ]
  %67 = phi i64 [ 0, %57 ], [ %112, %110 ]
  %68 = icmp eq i64 %60, 0
  br i1 %68, label %79, label %69

69:                                               ; preds = %64
  %70 = getelementptr inbounds [1000 x i32], [1000 x i32]* @a, i64 0, i64 %67
  %71 = load i32, i32* %70, align 4, !tbaa !5
  %72 = icmp slt i32 %71, %59
  br i1 %72, label %79, label %73

73:                                               ; preds = %69
  %74 = getelementptr inbounds [1000 x i32], [1000 x i32]* @f, i64 0, i64 %67
  %75 = load i32, i32* %74, align 4, !tbaa !5
  %76 = icmp slt i32 %75, %66
  br i1 %76, label %79, label %77

77:                                               ; preds = %73
  %78 = add nsw i32 %75, 1
  store i32 %78, i32* %55, align 4, !tbaa !5
  br label %79

79:                                               ; preds = %64, %69, %73, %77, %52
  %80 = phi i32 [ 1, %52 ], [ %65, %64 ], [ %66, %69 ], [ %66, %73 ], [ %78, %77 ]
  %81 = icmp sgt i32 %54, %80
  %82 = select i1 %81, i32 %54, i32 %80
  %83 = add nuw nsw i64 %53, 1
  %84 = icmp eq i64 %83, %10
  br i1 %84, label %19, label %52, !llvm.loop !20

85:                                               ; preds = %110, %62
  %86 = phi i32 [ 1, %62 ], [ %111, %110 ]
  %87 = phi i64 [ 0, %62 ], [ %112, %110 ]
  %88 = phi i64 [ %63, %62 ], [ %113, %110 ]
  %89 = getelementptr inbounds [1000 x i32], [1000 x i32]* @a, i64 0, i64 %87
  %90 = load i32, i32* %89, align 8, !tbaa !5
  %91 = icmp slt i32 %90, %59
  br i1 %91, label %98, label %92

92:                                               ; preds = %85
  %93 = getelementptr inbounds [1000 x i32], [1000 x i32]* @f, i64 0, i64 %87
  %94 = load i32, i32* %93, align 8, !tbaa !5
  %95 = icmp slt i32 %94, %86
  br i1 %95, label %98, label %96

96:                                               ; preds = %92
  %97 = add nsw i32 %94, 1
  store i32 %97, i32* %55, align 4, !tbaa !5
  br label %98

98:                                               ; preds = %85, %92, %96
  %99 = phi i32 [ %86, %85 ], [ %86, %92 ], [ %97, %96 ]
  %100 = or i64 %87, 1
  %101 = getelementptr inbounds [1000 x i32], [1000 x i32]* @a, i64 0, i64 %100
  %102 = load i32, i32* %101, align 4, !tbaa !5
  %103 = icmp slt i32 %102, %59
  br i1 %103, label %110, label %104

104:                                              ; preds = %98
  %105 = getelementptr inbounds [1000 x i32], [1000 x i32]* @f, i64 0, i64 %100
  %106 = load i32, i32* %105, align 4, !tbaa !5
  %107 = icmp slt i32 %106, %99
  br i1 %107, label %110, label %108

108:                                              ; preds = %104
  %109 = add nsw i32 %106, 1
  store i32 %109, i32* %55, align 4, !tbaa !5
  br label %110

110:                                              ; preds = %108, %104, %98
  %111 = phi i32 [ %99, %98 ], [ %99, %104 ], [ %109, %108 ]
  %112 = add nuw nsw i64 %87, 2
  %113 = add i64 %88, -2
  %114 = icmp eq i64 %113, 0
  br i1 %114, label %64, label %85, !llvm.loop !21
}

declare nonnull align 8 dereferenceable(16) %"class.std::basic_istream"* @_ZNSirsERi(%"class.std::basic_istream"* nonnull align 8 dereferenceable(16), i32* nonnull align 4 dereferenceable(4)) local_unnamed_addr #0

declare nonnull align 8 dereferenceable(8) %"class.std::basic_ostream"* @_ZNSolsEi(%"class.std::basic_ostream"* nonnull align 8 dereferenceable(8), i32) local_unnamed_addr #0

declare nonnull align 8 dereferenceable(8) %"class.std::basic_ostream"* @_ZNSo3putEc(%"class.std::basic_ostream"* nonnull align 8 dereferenceable(8), i8 signext) local_unnamed_addr #0

declare nonnull align 8 dereferenceable(8) %"class.std::basic_ostream"* @_ZNSo5flushEv(%"class.std::basic_ostream"* nonnull align 8 dereferenceable(8)) local_unnamed_addr #0

; Function Attrs: noreturn
declare void @_ZSt16__throw_bad_castv() local_unnamed_addr #4

declare void @_ZNKSt5ctypeIcE13_M_widen_initEv(%"class.std::ctype"* nonnull align 8 dereferenceable(570)) local_unnamed_addr #0

; Function Attrs: sspstrong uwtable
define internal void @_GLOBAL__sub_I_918.cpp() #5 section ".text.startup" {
  tail call void @_ZNSt8ios_base4InitC1Ev(%"class.std::ios_base::Init"* nonnull align 1 dereferenceable(1) @_ZStL8__ioinit)
  %1 = tail call i32 @__cxa_atexit(void (i8*)* bitcast (void (%"class.std::ios_base::Init"*)* @_ZNSt8ios_base4InitD1Ev to void (i8*)*), i8* getelementptr inbounds (%"class.std::ios_base::Init", %"class.std::ios_base::Init"* @_ZStL8__ioinit, i64 0, i32 0), i8* nonnull @__dso_handle) #7
  ret void
}


!llvm.module.flags = !{!0, !1, !2, !3}
!llvm.ident = !{!4}

!0 = !{i32 1, !"wchar_size", i32 4}
!1 = !{i32 7, !"PIC Level", i32 2}
!2 = !{i32 7, !"PIE Level", i32 2}
!3 = !{i32 7, !"uwtable", i32 1}
!4 = !{!"clang version 13.0.0"}
!5 = !{!6, !6, i64 0}
!6 = !{!"int", !7, i64 0}
!7 = !{!"omnipotent char", !8, i64 0}
!8 = !{!"Simple C++ TBAA"}
!9 = distinct !{!9, !10}
!10 = !{!"llvm.loop.mustprogress"}
!11 = !{!12, !12, i64 0}
!12 = !{!"vtable pointer", !8, i64 0}
!13 = !{!14, !15, i64 240}
!14 = !{!"_ZTSSt9basic_iosIcSt11char_traitsIcEE", !15, i64 216, !7, i64 224, !16, i64 225, !15, i64 232, !15, i64 240, !15, i64 248, !15, i64 256}
!15 = !{!"any pointer", !7, i64 0}
!16 = !{!"bool", !7, i64 0}
!17 = !{!18, !7, i64 56}
!18 = !{!"_ZTSSt5ctypeIcE", !15, i64 16, !16, i64 24, !15, i64 32, !15, i64 40, !15, i64 48, !7, i64 56, !7, i64 57, !7, i64 313, !7, i64 569}
!19 = !{!7, !7, i64 0}
!20 = distinct !{!20, !10}
!21 = distinct !{!21, !10}
